; Function Attrs: nounwind uwtable
define internal fastcc i32 @ssl_parse_server_ecdh_params(ptr noundef %0, ptr noundef nonnull %1, ptr noundef %2) unnamed_addr #0 {
  %4 = getelementptr inbounds nuw i8, ptr %0, i64 112
  %5 = load ptr, ptr %4, align 8, !tbaa !44
  %6 = getelementptr inbounds nuw i8, ptr %5, i64 280
  %7 = tail call i32 @mbedtls_ecdh_read_params(ptr noundef nonnull %6, ptr noundef nonnull %1, ptr noundef %2) #14
  %.not = icmp eq i32 %7, 0
  br i1 %.not, label %9, label %8

8:                                                ; preds = %3
  tail call void @mbedtls_debug_print_ret(ptr noundef nonnull %0, i32 noundef 1, ptr noundef nonnull @.str, i32 noundef 1844, ptr noundef nonnull @.str.99, i32 noundef %7) #14
  br label %12

9:                                                ; preds = %3
  %10 = tail call fastcc i32 @ssl_check_server_ecdh_params(ptr noundef nonnull %0)
  %.not10 = icmp eq i32 %10, 0
  br i1 %.not10, label %12, label %11

11:                                               ; preds = %9
  tail call void (ptr, i32, ptr, i32, ptr, ...) @mbedtls_debug_print_msg(ptr noundef nonnull %0, i32 noundef 1, ptr noundef nonnull @.str, i32 noundef 1855, ptr noundef nonnull @.str.100) #14
  br label %12

12:                                               ; preds = %9, %11, %8
  %.0 = phi i32 [ %7, %8 ], [ -28160, %11 ], [ 0, %9 ]
  ret i32 %.0
}